target datalayout = "e-m:e-p270:32:32-p271:32:32-p272:64:64-i64:64-i128:128-f80:128-n8:16:32:64-S128"
target triple = "x86_64-unknown-linux-gnu"

%"class.zmq::xsub_t" = type <{ %"class.zmq::socket_base_t.base", [7 x i8], %"class.zmq::fq_t", %"class.zmq::dist_t", %"class.zmq::radix_tree_t", i8, i8, [6 x i8], %"class.zmq::msg_t", i8, i8, i8, i8, [4 x i8] }>
%"class.zmq::socket_base_t.base" = type <{ %"class.zmq::own_t.base", [4 x i8], %"class.zmq::array_item_t.base", [4 x i8], %"struct.zmq::i_poll_events", %"struct.zmq::i_pipe_events", %"class.zmq::mutex_t", %"class.std::multimap", %"class.zmq::socket_base_t::inprocs_t", i32, i8, i8, [2 x i8], ptr, %"class.zmq::array_t", ptr, ptr, i64, i32, i8, [3 x i8], %"class.zmq::clock_t", ptr, i64, %"class.std::__cxx11::basic_string", i8, [7 x i8], ptr, %"class.zmq::mutex_t", i8 }>
%"class.zmq::own_t.base" = type <{ %"class.zmq::object_t.base", [4 x i8], %"struct.zmq::options_t", i8, [7 x i8], %"class.zmq::atomic_counter_t", i64, ptr, %"class.std::set.28", i32 }>
%"class.zmq::object_t.base" = type <{ ptr, ptr, i32 }>
%"struct.zmq::options_t" = type { i32, i32, i64, i8, [256 x i8], i32, i32, i32, i32, i32, i32, i32, i32, i8, %"struct.zmq::atomic_value_t", i32, i32, i32, i32, i32, i32, i64, i32, i32, i8, i32, i8, i8, i8, i8, i8, %"class.std::__cxx11::basic_string", %"class.std::__cxx11::basic_string", %"class.std::__cxx11::basic_string", i32, i32, i32, i32, %"class.std::vector", %"class.std::set", %"class.std::set", %"class.std::set.6", i32, i32, %"class.std::__cxx11::basic_string", %"class.std::__cxx11::basic_string", %"class.std::__cxx11::basic_string", [32 x i8], [32 x i8], [32 x i8], %"class.std::__cxx11::basic_string", %"class.std::__cxx11::basic_string", i32, i32, i8, i32, i8, i32, i8, i16, i32, i32, i32, %"class.std::__cxx11::basic_string", i8, i8, i8, i32, i32, i8, i32, %"class.std::map", i32, %"class.std::__cxx11::basic_string", %"class.std::__cxx11::basic_string", %"class.std::__cxx11::basic_string", %"class.std::__cxx11::basic_string", i8, %"class.std::vector.21", i8, %"class.std::vector.21", i8, %"class.std::vector.21", i8, i32, i8, i32, i32, i32, i32, i32, i8, i32 }
%"struct.zmq::atomic_value_t" = type { %"struct.std::atomic" }
%"struct.std::atomic" = type { %"struct.std::__atomic_base" }
%"struct.std::__atomic_base" = type { i32 }
%"class.std::vector" = type { %"struct.std::_Vector_base" }
%"struct.std::_Vector_base" = type { %"struct.std::_Vector_base<zmq::tcp_address_mask_t, std::allocator<zmq::tcp_address_mask_t>>::_Vector_impl" }
%"struct.std::_Vector_base<zmq::tcp_address_mask_t, std::allocator<zmq::tcp_address_mask_t>>::_Vector_impl" = type { %"struct.std::_Vector_base<zmq::tcp_address_mask_t, std::allocator<zmq::tcp_address_mask_t>>::_Vector_impl_data" }
%"struct.std::_Vector_base<zmq::tcp_address_mask_t, std::allocator<zmq::tcp_address_mask_t>>::_Vector_impl_data" = type { ptr, ptr, ptr }
%"class.std::set" = type { %"class.std::_Rb_tree" }
%"class.std::_Rb_tree" = type { %"struct.std::_Rb_tree<unsigned int, unsigned int, std::_Identity<unsigned int>, std::less<unsigned int>>::_Rb_tree_impl" }
%"struct.std::_Rb_tree<unsigned int, unsigned int, std::_Identity<unsigned int>, std::less<unsigned int>>::_Rb_tree_impl" = type { %"struct.std::_Rb_tree_key_compare", %"struct.std::_Rb_tree_header" }
%"struct.std::_Rb_tree_key_compare" = type { %"struct.std::less" }
%"struct.std::less" = type { i8 }
%"struct.std::_Rb_tree_header" = type { %"struct.std::_Rb_tree_node_base", i64 }
%"struct.std::_Rb_tree_node_base" = type { i32, ptr, ptr, ptr }
%"class.std::set.6" = type { %"class.std::_Rb_tree.7" }
%"class.std::_Rb_tree.7" = type { %"struct.std::_Rb_tree<int, int, std::_Identity<int>, std::less<int>>::_Rb_tree_impl" }
%"struct.std::_Rb_tree<int, int, std::_Identity<int>, std::less<int>>::_Rb_tree_impl" = type { %"struct.std::_Rb_tree_key_compare.11", %"struct.std::_Rb_tree_header" }
%"struct.std::_Rb_tree_key_compare.11" = type { %"struct.std::less.12" }
%"struct.std::less.12" = type { i8 }
%"class.std::map" = type { %"class.std::_Rb_tree.14" }
%"class.std::_Rb_tree.14" = type { %"struct.std::_Rb_tree<std::__cxx11::basic_string<char>, std::pair<const std::__cxx11::basic_string<char>, std::__cxx11::basic_string<char>>, std::_Select1st<std::pair<const std::__cxx11::basic_string<char>, std::__cxx11::basic_string<char>>>, std::less<std::__cxx11::basic_string<char>>>::_Rb_tree_impl" }
%"struct.std::_Rb_tree<std::__cxx11::basic_string<char>, std::pair<const std::__cxx11::basic_string<char>, std::__cxx11::basic_string<char>>, std::_Select1st<std::pair<const std::__cxx11::basic_string<char>, std::__cxx11::basic_string<char>>>, std::less<std::__cxx11::basic_string<char>>>::_Rb_tree_impl" = type { %"struct.std::_Rb_tree_key_compare.18", %"struct.std::_Rb_tree_header" }
%"struct.std::_Rb_tree_key_compare.18" = type { %"struct.std::less.19" }
%"struct.std::less.19" = type { i8 }
%"class.std::vector.21" = type { %"struct.std::_Vector_base.22" }
%"struct.std::_Vector_base.22" = type { %"struct.std::_Vector_base<unsigned char, std::allocator<unsigned char>>::_Vector_impl" }
%"struct.std::_Vector_base<unsigned char, std::allocator<unsigned char>>::_Vector_impl" = type { %"struct.std::_Vector_base<unsigned char, std::allocator<unsigned char>>::_Vector_impl_data" }
%"struct.std::_Vector_base<unsigned char, std::allocator<unsigned char>>::_Vector_impl_data" = type { ptr, ptr, ptr }
%"class.zmq::atomic_counter_t" = type { %"struct.std::atomic.26", [4 x i8] }
%"struct.std::atomic.26" = type { %"struct.std::__atomic_base.27" }
%"struct.std::__atomic_base.27" = type { i32 }
%"class.std::set.28" = type { %"class.std::_Rb_tree.29" }
%"class.std::_Rb_tree.29" = type { %"struct.std::_Rb_tree<zmq::own_t *, zmq::own_t *, std::_Identity<zmq::own_t *>, std::less<zmq::own_t *>>::_Rb_tree_impl" }
%"struct.std::_Rb_tree<zmq::own_t *, zmq::own_t *, std::_Identity<zmq::own_t *>, std::less<zmq::own_t *>>::_Rb_tree_impl" = type { %"struct.std::_Rb_tree_key_compare.33", %"struct.std::_Rb_tree_header" }
%"struct.std::_Rb_tree_key_compare.33" = type { %"struct.std::less.34" }
%"struct.std::less.34" = type { i8 }
%"class.zmq::array_item_t.base" = type <{ ptr, i32 }>
%"struct.zmq::i_poll_events" = type { ptr }
%"struct.zmq::i_pipe_events" = type { ptr }
%"class.std::multimap" = type { %"class.std::_Rb_tree.36" }
%"class.std::_Rb_tree.36" = type { %"struct.std::_Rb_tree<std::__cxx11::basic_string<char>, std::pair<const std::__cxx11::basic_string<char>, std::pair<zmq::own_t *, zmq::pipe_t *>>, std::_Select1st<std::pair<const std::__cxx11::basic_string<char>, std::pair<zmq::own_t *, zmq::pipe_t *>>>, std::less<std::__cxx11::basic_string<char>>>::_Rb_tree_impl" }
%"struct.std::_Rb_tree<std::__cxx11::basic_string<char>, std::pair<const std::__cxx11::basic_string<char>, std::pair<zmq::own_t *, zmq::pipe_t *>>, std::_Select1st<std::pair<const std::__cxx11::basic_string<char>, std::pair<zmq::own_t *, zmq::pipe_t *>>>, std::less<std::__cxx11::basic_string<char>>>::_Rb_tree_impl" = type { %"struct.std::_Rb_tree_key_compare.18", %"struct.std::_Rb_tree_header" }
%"class.zmq::socket_base_t::inprocs_t" = type { %"class.std::multimap.40" }
%"class.std::multimap.40" = type { %"class.std::_Rb_tree.41" }
%"class.std::_Rb_tree.41" = type { %"struct.std::_Rb_tree<std::__cxx11::basic_string<char>, std::pair<const std::__cxx11::basic_string<char>, zmq::pipe_t *>, std::_Select1st<std::pair<const std::__cxx11::basic_string<char>, zmq::pipe_t *>>, std::less<std::__cxx11::basic_string<char>>>::_Rb_tree_impl" }
%"struct.std::_Rb_tree<std::__cxx11::basic_string<char>, std::pair<const std::__cxx11::basic_string<char>, zmq::pipe_t *>, std::_Select1st<std::pair<const std::__cxx11::basic_string<char>, zmq::pipe_t *>>, std::less<std::__cxx11::basic_string<char>>>::_Rb_tree_impl" = type { %"struct.std::_Rb_tree_key_compare.18", %"struct.std::_Rb_tree_header" }
%"class.zmq::array_t" = type { %"class.std::vector.45" }
%"class.std::vector.45" = type { %"struct.std::_Vector_base.46" }
%"struct.std::_Vector_base.46" = type { %"struct.std::_Vector_base<zmq::pipe_t *, std::allocator<zmq::pipe_t *>>::_Vector_impl" }
%"struct.std::_Vector_base<zmq::pipe_t *, std::allocator<zmq::pipe_t *>>::_Vector_impl" = type { %"struct.std::_Vector_base<zmq::pipe_t *, std::allocator<zmq::pipe_t *>>::_Vector_impl_data" }
%"struct.std::_Vector_base<zmq::pipe_t *, std::allocator<zmq::pipe_t *>>::_Vector_impl_data" = type { ptr, ptr, ptr }
%"class.zmq::clock_t" = type { i64, i64 }
%"class.std::__cxx11::basic_string" = type { %"struct.std::__cxx11::basic_string<char>::_Alloc_hider", i64, %union.anon }
%"struct.std::__cxx11::basic_string<char>::_Alloc_hider" = type { ptr }
%union.anon = type { i64, [8 x i8] }
%"class.zmq::mutex_t" = type <{ %union.pthread_mutex_t, %union.pthread_mutexattr_t, [4 x i8] }>
%union.pthread_mutex_t = type { %struct.__pthread_mutex_s }
%struct.__pthread_mutex_s = type { i32, i32, i32, i32, i32, i16, i16, %struct.__pthread_internal_list }
%struct.__pthread_internal_list = type { ptr, ptr }
%union.pthread_mutexattr_t = type { i32 }
%"class.zmq::fq_t" = type <{ %"class.zmq::array_t.50", i64, i64, i8, [7 x i8] }>
%"class.zmq::array_t.50" = type { %"class.std::vector.45" }
%"class.zmq::dist_t" = type <{ %"class.zmq::array_t.51", i64, i64, i64, i8, [7 x i8] }>
%"class.zmq::array_t.51" = type { %"class.std::vector.45" }
%"class.zmq::radix_tree_t" = type { %struct.node_t, %"class.zmq::atomic_counter_t" }
%struct.node_t = type { ptr }
%"class.zmq::msg_t" = type { %union.anon.52 }
%union.anon.52 = type { %struct.anon }
%struct.anon = type { ptr, [34 x i8], i8, i8, i32, %"union.zmq::msg_t::group_t" }
%"union.zmq::msg_t::group_t" = type { %struct.anon.54 }
%struct.anon.54 = type { i8, ptr }
%"class.zmq::own_t" = type <{ %"class.zmq::object_t.base", [4 x i8], %"struct.zmq::options_t", i8, [7 x i8], %"class.zmq::atomic_counter_t", i64, ptr, %"class.std::set.28", i32, [4 x i8] }>

@stderr = external global ptr, align 8
@.str = private unnamed_addr constant [12 x i8] c"%s (%s:%d)\0A\00", align 1
@.str.1 = private unnamed_addr constant [104 x i8] c"generated/home/dtcxzyw/WorkSpace/Projects/compilers/llvm-opt-benchmark/bench/libzmq/libzmq/src/xsub.cpp\00", align 1

; Function Attrs: mustprogress uwtable
define noundef zeroext i1 @_ZN3zmq6xsub_t5matchEPNS_5msg_tE(ptr noundef nonnull align 8 dereferenceable(2028) %this, ptr noundef %msg_) #0 align 2 {
entry:
  %this.addr = alloca ptr, align 8
  %msg_.addr = alloca ptr, align 8
  %matching = alloca i8, align 1
  store ptr %this, ptr %this.addr, align 8
  store ptr %msg_, ptr %msg_.addr, align 8
  %this1 = load ptr, ptr %this.addr, align 8
  %_subscriptions = getelementptr inbounds %"class.zmq::xsub_t", ptr %this1, i32 0, i32 4
  %0 = load ptr, ptr %msg_.addr, align 8
  %call = call noundef ptr @_ZN3zmq5msg_t4dataEv(ptr noundef nonnull align 8 dereferenceable(64) %0)
  %1 = load ptr, ptr %msg_.addr, align 8
  %call2 = call noundef i64 @_ZNK3zmq5msg_t4sizeEv(ptr noundef nonnull align 8 dereferenceable(64) %1)
  %call3 = call noundef zeroext i1 @_ZN3zmq12radix_tree_t5checkEPKhm(ptr noundef nonnull align 8 dereferenceable(16) %_subscriptions, ptr noundef %call, i64 noundef %call2)
  %frombool = zext i1 %call3 to i8
  store i8 %frombool, ptr %matching, align 1
  %2 = load i8, ptr %matching, align 1
  %tobool = trunc i8 %2 to i1
  %conv = zext i1 %tobool to i32
  %options = getelementptr inbounds %"class.zmq::own_t", ptr %this1, i32 0, i32 2
  %invert_matching = getelementptr inbounds %"struct.zmq::options_t", ptr %options, i32 0, i32 27
  %3 = load i8, ptr %invert_matching, align 1
  %tobool4 = trunc i8 %3 to i1
  %conv5 = zext i1 %tobool4 to i32
  %xor = xor i32 %conv, %conv5
  %tobool6 = icmp ne i32 %xor, 0
  ret i1 %tobool6
}

; Function Attrs: mustprogress uwtable
define noundef zeroext i1 @_ZN3zmq6xsub_t7xhas_inEv(ptr noundef nonnull align 8 dereferenceable(2028) %this) unnamed_addr #0 align 2 {
entry:
  %retval = alloca i1, align 1
  %this.addr = alloca ptr, align 8
  %rc = alloca i32, align 4
  %errstr = alloca ptr, align 8
  %errstr34 = alloca ptr, align 8
  store ptr %this, ptr %this.addr, align 8
  %this1 = load ptr, ptr %this.addr, align 8
  %_more_recv = getelementptr inbounds %"class.zmq::xsub_t", ptr %this1, i32 0, i32 10
  %0 = load i8, ptr %_more_recv, align 1
  %tobool = trunc i8 %0 to i1
  br i1 %tobool, label %if.then, label %if.end

if.then:                                          ; preds = %entry
  store i1 true, ptr %retval, align 1
  br label %return

if.end:                                           ; preds = %entry
  %_has_message = getelementptr inbounds %"class.zmq::xsub_t", ptr %this1, i32 0, i32 6
  %1 = load i8, ptr %_has_message, align 1
  %tobool2 = trunc i8 %1 to i1
  br i1 %tobool2, label %if.then3, label %if.end4

if.then3:                                         ; preds = %if.end
  store i1 true, ptr %retval, align 1
  br label %return

if.end4:                                          ; preds = %if.end
  br label %while.body

while.body:                                       ; preds = %while.end, %if.end4
  %_fq = getelementptr inbounds %"class.zmq::xsub_t", ptr %this1, i32 0, i32 2
  %_message = getelementptr inbounds %"class.zmq::xsub_t", ptr %this1, i32 0, i32 8
  %call = call noundef i32 @_ZN3zmq4fq_t4recvEPNS_5msg_tE(ptr noundef nonnull align 8 dereferenceable(41) %_fq, ptr noundef %_message)
  store i32 %call, ptr %rc, align 4
  %2 = load i32, ptr %rc, align 4
  %cmp = icmp ne i32 %2, 0
  br i1 %cmp, label %if.then5, label %if.end14

if.then5:                                         ; preds = %while.body
  br label %do.body

do.body:                                          ; preds = %if.then5
  %call6 = call ptr @__errno_location() #9
  %3 = load i32, ptr %call6, align 4
  %cmp7 = icmp eq i32 %3, 11
  %lnot = xor i1 %cmp7, true
  br i1 %lnot, label %if.then8, label %if.end13

if.then8:                                         ; preds = %do.body
  %call9 = call ptr @__errno_location() #9
  %4 = load i32, ptr %call9, align 4
  %call10 = call ptr @strerror(i32 noundef %4) #8
  store ptr %call10, ptr %errstr, align 8
  %5 = load ptr, ptr @stderr, align 8
  %6 = load ptr, ptr %errstr, align 8
  %call11 = call i32 (ptr, ptr, ...) @fprintf(ptr noundef %5, ptr noundef @.str, ptr noundef %6, ptr noundef @.str.1, i32 noundef 235)
  %7 = load ptr, ptr @stderr, align 8
  %call12 = call i32 @fflush(ptr noundef %7)
  %8 = load ptr, ptr %errstr, align 8
  call void @_ZN3zmq9zmq_abortEPKc(ptr noundef %8)
  br label %if.end13

if.end13:                                         ; preds = %if.then8, %do.body
  br label %do.end

do.end:                                           ; preds = %if.end13
  store i1 false, ptr %retval, align 1
  br label %return

if.end14:                                         ; preds = %while.body
  %options = getelementptr inbounds %"class.zmq::own_t", ptr %this1, i32 0, i32 2
  %filter = getelementptr inbounds %"struct.zmq::options_t", ptr %options, i32 0, i32 26
  %9 = load i8, ptr %filter, align 8
  %tobool15 = trunc i8 %9 to i1
  br i1 %tobool15, label %lor.lhs.false, label %if.then18

lor.lhs.false:                                    ; preds = %if.end14
  %_message16 = getelementptr inbounds %"class.zmq::xsub_t", ptr %this1, i32 0, i32 8
  %call17 = call noundef zeroext i1 @_ZN3zmq6xsub_t5matchEPNS_5msg_tE(ptr noundef nonnull align 8 dereferenceable(2028) %this1, ptr noundef %_message16)
  br i1 %call17, label %if.then18, label %if.end20

if.then18:                                        ; preds = %lor.lhs.false, %if.end14
  %_has_message19 = getelementptr inbounds %"class.zmq::xsub_t", ptr %this1, i32 0, i32 6
  store i8 1, ptr %_has_message19, align 1
  store i1 true, ptr %retval, align 1
  br label %return

if.end20:                                         ; preds = %lor.lhs.false
  br label %while.cond21

while.cond21:                                     ; preds = %do.end40, %if.end20
  %_message22 = getelementptr inbounds %"class.zmq::xsub_t", ptr %this1, i32 0, i32 8
  %call23 = call noundef zeroext i8 @_ZNK3zmq5msg_t5flagsEv(ptr noundef nonnull align 8 dereferenceable(64) %_message22)
  %conv = zext i8 %call23 to i32
  %and = and i32 %conv, 1
  %tobool24 = icmp ne i32 %and, 0
  br i1 %tobool24, label %while.body25, label %while.end

while.body25:                                     ; preds = %while.cond21
  %_fq26 = getelementptr inbounds %"class.zmq::xsub_t", ptr %this1, i32 0, i32 2
  %_message27 = getelementptr inbounds %"class.zmq::xsub_t", ptr %this1, i32 0, i32 8
  %call28 = call noundef i32 @_ZN3zmq4fq_t4recvEPNS_5msg_tE(ptr noundef nonnull align 8 dereferenceable(41) %_fq26, ptr noundef %_message27)
  store i32 %call28, ptr %rc, align 4
  br label %do.body29

do.body29:                                        ; preds = %while.body25
  %10 = load i32, ptr %rc, align 4
  %cmp30 = icmp eq i32 %10, 0
  %lnot31 = xor i1 %cmp30, true
  br i1 %lnot31, label %if.then33, label %if.end39

if.then33:                                        ; preds = %do.body29
  %call35 = call ptr @__errno_location() #9
  %11 = load i32, ptr %call35, align 4
  %call36 = call ptr @strerror(i32 noundef %11) #8
  store ptr %call36, ptr %errstr34, align 8
  %12 = load ptr, ptr @stderr, align 8
  %13 = load ptr, ptr %errstr34, align 8
  %call37 = call i32 (ptr, ptr, ...) @fprintf(ptr noundef %12, ptr noundef @.str, ptr noundef %13, ptr noundef @.str.1, i32 noundef 249)
  %14 = load ptr, ptr @stderr, align 8
  %call38 = call i32 @fflush(ptr noundef %14)
  %15 = load ptr, ptr %errstr34, align 8
  call void @_ZN3zmq9zmq_abortEPKc(ptr noundef %15)
  br label %if.end39

if.end39:                                         ; preds = %if.then33, %do.body29
  br label %do.end40

do.end40:                                         ; preds = %if.end39
  br label %while.cond21, !llvm.loop !7

while.end:                                        ; preds = %while.cond21
  br label %while.body, !llvm.loop !8

return:                                           ; preds = %if.then18, %do.end, %if.then3, %if.then
  %16 = load i1, ptr %retval, align 1
  ret i1 %16
}