; Function Attrs: mustprogress uwtable
define noundef zeroext i1 @_ZN3zmq6xsub_t7xhas_inEv(ptr noundef nonnull align 8 dereferenceable(2028) %this) unnamed_addr #0 align 2 {
entry:
  %_more_recv = getelementptr inbounds i8, ptr %this, i64 2025
  %0 = load i8, ptr %_more_recv, align 1
  %1 = and i8 %0, 1
  %tobool.not = icmp eq i8 %1, 0
  br i1 %tobool.not, label %if.end, label %return

if.end:                                           ; preds = %entry
  %_has_message = getelementptr inbounds i8, ptr %this, i64 1953
  %2 = load i8, ptr %_has_message, align 1
  %3 = and i8 %2, 1
  %tobool2.not = icmp eq i8 %3, 0
  br i1 %tobool2.not, label %while.body.preheader, label %return

while.body.preheader:                             ; preds = %if.end
  %_fq = getelementptr inbounds i8, ptr %this, i64 1832
  %_message = getelementptr inbounds i8, ptr %this, i64 1960
  %call7 = tail call noundef i32 @_ZN3zmq4fq_t4recvEPNS_5msg_tE(ptr noundef nonnull align 8 dereferenceable(41) %_fq, ptr noundef nonnull %_message)
  %cmp.not8 = icmp eq i32 %call7, 0
  br i1 %cmp.not8, label %if.end14.lr.ph, label %do.body

if.end14.lr.ph:                                   ; preds = %while.body.preheader
  %filter = getelementptr inbounds i8, ptr %this, i64 392
  %_subscriptions.i = getelementptr inbounds i8, ptr %this, i64 1936
  %invert_matching.i = getelementptr inbounds i8, ptr %this, i64 393
  br label %if.end14

while.body.loopexit:                              ; preds = %do.end40, %while.cond21.preheader
  %call = tail call noundef i32 @_ZN3zmq4fq_t4recvEPNS_5msg_tE(ptr noundef nonnull align 8 dereferenceable(41) %_fq, ptr noundef nonnull %_message)
  %cmp.not = icmp eq i32 %call, 0
  br i1 %cmp.not, label %if.end14, label %do.body, !llvm.loop !7

do.body:                                          ; preds = %while.body.loopexit, %while.body.preheader
  %call6 = tail call ptr @__errno_location() #12
  %4 = load i32, ptr %call6, align 4
  %cmp7.not = icmp eq i32 %4, 11
  br i1 %cmp7.not, label %return, label %if.then8

if.then8:                                         ; preds = %do.body
  %call10 = tail call ptr @strerror(i32 noundef %4) #13
  %5 = load ptr, ptr @stderr, align 8
  %call11 = tail call i32 (ptr, ptr, ...) @fprintf(ptr noundef %5, ptr noundef nonnull @.str, ptr noundef %call10, ptr noundef nonnull @.str.1, i32 noundef 235) #14
  %6 = load ptr, ptr @stderr, align 8
  %call12 = tail call i32 @fflush(ptr noundef %6)
  tail call void @_ZN3zmq9zmq_abortEPKc(ptr noundef %call10)
  br label %return

if.end14:                                         ; preds = %if.end14.lr.ph, %while.body.loopexit
  %7 = load i8, ptr %filter, align 8
  %8 = and i8 %7, 1
  %tobool15.not = icmp eq i8 %8, 0
  br i1 %tobool15.not, label %if.then18, label %lor.lhs.false

lor.lhs.false:                                    ; preds = %if.end14
  %call.i = tail call noundef ptr @_ZN3zmq5msg_t4dataEv(ptr noundef nonnull align 8 dereferenceable(64) %_message)
  %call2.i = tail call noundef i64 @_ZNK3zmq5msg_t4sizeEv(ptr noundef nonnull align 8 dereferenceable(64) %_message)
  %call3.i = tail call noundef zeroext i1 @_ZN3zmq12radix_tree_t5checkEPKhm(ptr noundef nonnull align 8 dereferenceable(16) %_subscriptions.i, ptr noundef %call.i, i64 noundef %call2.i)
  %9 = load i8, ptr %invert_matching.i, align 1
  %10 = and i8 %9, 1
  %11 = icmp ne i8 %10, 0
  %tobool6.i = xor i1 %call3.i, %11
  br i1 %tobool6.i, label %if.then18, label %while.cond21.preheader

while.cond21.preheader:                           ; preds = %lor.lhs.false
  %call234 = tail call noundef zeroext i8 @_ZNK3zmq5msg_t5flagsEv(ptr noundef nonnull align 8 dereferenceable(64) %_message)
  %12 = and i8 %call234, 1
  %tobool24.not5 = icmp eq i8 %12, 0
  br i1 %tobool24.not5, label %while.body.loopexit, label %while.body25

if.then18:                                        ; preds = %lor.lhs.false, %if.end14
  store i8 1, ptr %_has_message, align 1
  br label %return

while.body25:                                     ; preds = %while.cond21.preheader, %do.end40
  %call28 = tail call noundef i32 @_ZN3zmq4fq_t4recvEPNS_5msg_tE(ptr noundef nonnull align 8 dereferenceable(41) %_fq, ptr noundef nonnull %_message)
  %cmp30.not = icmp eq i32 %call28, 0
  br i1 %cmp30.not, label %do.end40, label %if.then33

if.then33:                                        ; preds = %while.body25
  %call35 = tail call ptr @__errno_location() #12
  %13 = load i32, ptr %call35, align 4
  %call36 = tail call ptr @strerror(i32 noundef %13) #13
  %14 = load ptr, ptr @stderr, align 8
  %call37 = tail call i32 (ptr, ptr, ...) @fprintf(ptr noundef %14, ptr noundef nonnull @.str, ptr noundef %call36, ptr noundef nonnull @.str.1, i32 noundef 249) #14
  %15 = load ptr, ptr @stderr, align 8
  %call38 = tail call i32 @fflush(ptr noundef %15)
  tail call void @_ZN3zmq9zmq_abortEPKc(ptr noundef %call36)
  br label %do.end40

do.end40:                                         ; preds = %while.body25, %if.then33
  %call23 = tail call noundef zeroext i8 @_ZNK3zmq5msg_t5flagsEv(ptr noundef nonnull align 8 dereferenceable(64) %_message)
  %16 = and i8 %call23, 1
  %tobool24.not = icmp eq i8 %16, 0
  br i1 %tobool24.not, label %while.body.loopexit, label %while.body25, !llvm.loop !8

return:                                           ; preds = %if.then8, %do.body, %if.end, %entry, %if.then18
  %retval.0 = phi i1 [ true, %if.then18 ], [ true, %entry ], [ true, %if.end ], [ false, %do.body ], [ false, %if.then8 ]
  ret i1 %retval.0
}